target datalayout = "e-m:e-p270:32:32-p271:32:32-p272:64:64-i64:64-i128:128-f80:128-n8:16:32:64-S128"
target triple = "x86_64-pc-linux-gnu"

%"class.opencc::DictGroup" = type { %"class.opencc::Dict", i64, %"class.std::__cxx11::list" }
%"class.opencc::Dict" = type { ptr }
%"class.std::__cxx11::list" = type { %"class.std::__cxx11::_List_base" }
%"class.std::__cxx11::_List_base" = type { %"struct.std::__cxx11::_List_base<std::shared_ptr<opencc::Dict>, std::allocator<std::shared_ptr<opencc::Dict>>>::_List_impl" }
%"struct.std::__cxx11::_List_base<std::shared_ptr<opencc::Dict>, std::allocator<std::shared_ptr<opencc::Dict>>>::_List_impl" = type { %"struct.std::__detail::_List_node_header" }
%"struct.std::__detail::_List_node_header" = type { %"struct.std::__detail::_List_node_base", i64 }
%"struct.std::__detail::_List_node_base" = type { ptr, ptr }
%"struct.std::_List_const_iterator" = type { ptr }
%"class.opencc::Optional" = type { ptr }
%"class.std::__shared_count" = type { ptr }
%"class.std::__shared_ptr" = type { ptr, %"class.std::__shared_count" }
%"struct.std::_List_node" = type { %"struct.std::__detail::_List_node_base", %"struct.__gnu_cxx::__aligned_membuf" }
%"struct.__gnu_cxx::__aligned_membuf" = type { [16 x i8] }

; Function Attrs: mustprogress nounwind uwtable
define linkonce_odr noundef ptr @_ZNK9__gnu_cxx16__aligned_membufISt10shared_ptrIN6opencc4DictEEE7_M_addrEv(ptr noundef nonnull align 8 dereferenceable(16) %0) #2 comdat align 2 {
  %2 = alloca ptr, align 8
  store ptr %0, ptr %2, align 8, !tbaa !116
  %3 = load ptr, ptr %2, align 8
  %4 = getelementptr inbounds nuw %"struct.__gnu_cxx::__aligned_membuf", ptr %3, i32 0, i32 0
  ret ptr %4
}

; Function Attrs: mustprogress nounwind uwtable
define linkonce_odr noundef ptr @_ZNKSt12__shared_ptrIN6opencc4DictELN9__gnu_cxx12_Lock_policyE2EE3getEv(ptr noundef nonnull align 8 dereferenceable(16) %0) #2 comdat align 2 {
  %2 = alloca ptr, align 8
  store ptr %0, ptr %2, align 8, !tbaa !106
  %3 = load ptr, ptr %2, align 8
  %4 = getelementptr inbounds nuw %"class.std::__shared_ptr", ptr %3, i32 0, i32 0
  %5 = load ptr, ptr %4, align 8, !tbaa !300
  ret ptr %5
}

; Function Attrs: mustprogress nounwind uwtable
define linkonce_odr noundef ptr @_ZNK9__gnu_cxx16__aligned_membufISt10shared_ptrIN6opencc4DictEEE6_M_ptrEv(ptr noundef nonnull align 8 dereferenceable(16) %0) #2 comdat align 2 {
  %2 = alloca ptr, align 8
  store ptr %0, ptr %2, align 8, !tbaa !116
  %3 = load ptr, ptr %2, align 8
  %4 = call noundef ptr @_ZNK9__gnu_cxx16__aligned_membufISt10shared_ptrIN6opencc4DictEEE7_M_addrEv(ptr noundef nonnull align 8 dereferenceable(16) %3) #4
  ret ptr %4
}

; Function Attrs: mustprogress nounwind uwtable
define linkonce_odr void @_ZN6opencc8OptionalIPKNS_9DictEntryEEC2Ev(ptr noundef nonnull align 8 dereferenceable(8) %0) unnamed_addr #2 comdat align 2 {
  %2 = alloca ptr, align 8
  store ptr %0, ptr %2, align 8, !tbaa !37
  %3 = load ptr, ptr %2, align 8
  %4 = getelementptr inbounds nuw %"class.opencc::Optional", ptr %3, i32 0, i32 0
  store ptr null, ptr %4, align 8, !tbaa !49
  ret void
}

; Function Attrs: mustprogress nounwind uwtable
define linkonce_odr noundef ptr @_ZNKSt19__shared_ptr_accessIN6opencc4DictELN9__gnu_cxx12_Lock_policyE2ELb0ELb0EE6_M_getEv(ptr noundef nonnull align 1 dereferenceable(1) %0) #2 comdat align 2 {
  %2 = alloca ptr, align 8
  store ptr %0, ptr %2, align 8, !tbaa !47
  %3 = load ptr, ptr %2, align 8
  %4 = call noundef ptr @_ZNKSt12__shared_ptrIN6opencc4DictELN9__gnu_cxx12_Lock_policyE2EE3getEv(ptr noundef nonnull align 8 dereferenceable(16) %3) #4
  ret ptr %4
}

; Function Attrs: noinline noreturn nounwind uwtable
define linkonce_odr hidden void @__clang_call_terminate(ptr noundef %0) #11 comdat {
  %2 = call ptr @__cxa_begin_catch(ptr %0) #4
  call void @_ZSt9terminatev() #22
  unreachable
}

; Function Attrs: mustprogress nounwind uwtable
define linkonce_odr noundef ptr @_ZNKSt10_List_nodeISt10shared_ptrIN6opencc4DictEEE9_M_valptrEv(ptr noundef nonnull align 8 dereferenceable(32) %0) #2 comdat align 2 {
  %2 = alloca ptr, align 8
  store ptr %0, ptr %2, align 8, !tbaa !111
  %3 = load ptr, ptr %2, align 8
  %4 = getelementptr inbounds nuw %"struct.std::_List_node", ptr %3, i32 0, i32 1
  %5 = call noundef ptr @_ZNK9__gnu_cxx16__aligned_membufISt10shared_ptrIN6opencc4DictEEE6_M_ptrEv(ptr noundef nonnull align 8 dereferenceable(16) %4) #4
  ret ptr %5
}

; Function Attrs: mustprogress nounwind uwtable
define linkonce_odr void @_ZNSt20_List_const_iteratorISt10shared_ptrIN6opencc4DictEEEC2EPKNSt8__detail15_List_node_baseE(ptr noundef nonnull align 8 dereferenceable(8) %0, ptr noundef %1) unnamed_addr #2 comdat align 2 {
  %3 = alloca ptr, align 8
  %4 = alloca ptr, align 8
  store ptr %0, ptr %3, align 8, !tbaa !43
  store ptr %1, ptr %4, align 8, !tbaa !110
  %5 = load ptr, ptr %3, align 8
  %6 = getelementptr inbounds nuw %"struct.std::_List_const_iterator", ptr %5, i32 0, i32 0
  %7 = load ptr, ptr %4, align 8, !tbaa !110
  store ptr %7, ptr %6, align 8, !tbaa !45
  ret void
}

; Function Attrs: mustprogress uwtable
define linkonce_odr ptr @_ZN6opencc8OptionalIPKNS_9DictEntryEE4NullEv() #3 comdat align 2 {
  %1 = alloca %"class.opencc::Optional", align 8
  call void @_ZN6opencc8OptionalIPKNS_9DictEntryEEC2Ev(ptr noundef nonnull align 8 dereferenceable(8) %1)
  %2 = getelementptr inbounds nuw %"class.opencc::Optional", ptr %1, i32 0, i32 0
  %3 = load ptr, ptr %2, align 8
  ret ptr %3
}

; Function Attrs: mustprogress nounwind uwtable
define linkonce_odr noundef nonnull align 8 dereferenceable(8) ptr @_ZNSt20_List_const_iteratorISt10shared_ptrIN6opencc4DictEEEppEv(ptr noundef nonnull align 8 dereferenceable(8) %0) #2 comdat align 2 {
  %2 = alloca ptr, align 8
  store ptr %0, ptr %2, align 8, !tbaa !43
  %3 = load ptr, ptr %2, align 8
  %4 = getelementptr inbounds nuw %"struct.std::_List_const_iterator", ptr %3, i32 0, i32 0
  %5 = load ptr, ptr %4, align 8, !tbaa !45
  %6 = getelementptr inbounds nuw %"struct.std::__detail::_List_node_base", ptr %5, i32 0, i32 0
  %7 = load ptr, ptr %6, align 8, !tbaa !42
  %8 = getelementptr inbounds nuw %"struct.std::_List_const_iterator", ptr %3, i32 0, i32 0
  store ptr %7, ptr %8, align 8, !tbaa !45
  ret ptr %3
}

; Function Attrs: mustprogress nounwind uwtable
define linkonce_odr noundef zeroext i1 @_ZNK6opencc8OptionalIPKNS_9DictEntryEE6IsNullEv(ptr noundef nonnull align 8 dereferenceable(8) %0) #2 comdat align 2 {
  %2 = alloca ptr, align 8
  store ptr %0, ptr %2, align 8, !tbaa !37
  %3 = load ptr, ptr %2, align 8
  %4 = getelementptr inbounds nuw %"class.opencc::Optional", ptr %3, i32 0, i32 0
  %5 = load ptr, ptr %4, align 8, !tbaa !49
  %6 = icmp eq ptr %5, null
  ret i1 %6
}

; Function Attrs: mustprogress nounwind uwtable
define linkonce_odr noundef ptr @_ZNKSt19__shared_ptr_accessIN6opencc4DictELN9__gnu_cxx12_Lock_policyE2ELb0ELb0EEptEv(ptr noundef nonnull align 1 dereferenceable(1) %0) #2 comdat align 2 {
  %2 = alloca ptr, align 8
  store ptr %0, ptr %2, align 8, !tbaa !47
  %3 = load ptr, ptr %2, align 8
  %4 = call noundef ptr @_ZNKSt19__shared_ptr_accessIN6opencc4DictELN9__gnu_cxx12_Lock_policyE2ELb0ELb0EE6_M_getEv(ptr noundef nonnull align 1 dereferenceable(1) %3) #4
  ret ptr %4
}

; Function Attrs: mustprogress nounwind uwtable
define linkonce_odr noundef nonnull align 8 dereferenceable(16) ptr @_ZNKSt20_List_const_iteratorISt10shared_ptrIN6opencc4DictEEEdeEv(ptr noundef nonnull align 8 dereferenceable(8) %0) #2 comdat align 2 personality ptr @__gxx_personality_v0 {
  %2 = alloca ptr, align 8
  store ptr %0, ptr %2, align 8, !tbaa !43
  %3 = load ptr, ptr %2, align 8
  %4 = getelementptr inbounds nuw %"struct.std::_List_const_iterator", ptr %3, i32 0, i32 0
  %5 = load ptr, ptr %4, align 8, !tbaa !45
  %6 = invoke noundef ptr @_ZNKSt10_List_nodeISt10shared_ptrIN6opencc4DictEEE9_M_valptrEv(ptr noundef nonnull align 8 dereferenceable(32) %5)
          to label %7 unwind label %8

7:                                                ; preds = %1
  ret ptr %6

8:                                                ; preds = %1
  %9 = landingpad { ptr, i32 }
          catch ptr null
  %10 = extractvalue { ptr, i32 } %9, 0
  call void @__clang_call_terminate(ptr %10) #22
  unreachable
}

; Function Attrs: mustprogress nounwind uwtable
define linkonce_odr noundef zeroext i1 @_ZStneRKSt20_List_const_iteratorISt10shared_ptrIN6opencc4DictEEES6_(ptr noundef nonnull align 8 dereferenceable(8) %0, ptr noundef nonnull align 8 dereferenceable(8) %1) #2 comdat {
  %3 = alloca ptr, align 8
  %4 = alloca ptr, align 8
  store ptr %0, ptr %3, align 8, !tbaa !43
  store ptr %1, ptr %4, align 8, !tbaa !43
  %5 = load ptr, ptr %3, align 8, !tbaa !43
  %6 = getelementptr inbounds nuw %"struct.std::_List_const_iterator", ptr %5, i32 0, i32 0
  %7 = load ptr, ptr %6, align 8, !tbaa !45
  %8 = load ptr, ptr %4, align 8, !tbaa !43
  %9 = getelementptr inbounds nuw %"struct.std::_List_const_iterator", ptr %8, i32 0, i32 0
  %10 = load ptr, ptr %9, align 8, !tbaa !45
  %11 = icmp ne ptr %7, %10
  ret i1 %11
}

; Function Attrs: mustprogress nounwind uwtable
define linkonce_odr ptr @_ZNKSt7__cxx114listISt10shared_ptrIN6opencc4DictEESaIS4_EE3endEv(ptr noundef nonnull align 8 dereferenceable(24) %0) #2 comdat align 2 {
  %2 = alloca %"struct.std::_List_const_iterator", align 8
  %3 = alloca ptr, align 8
  store ptr %0, ptr %3, align 8, !tbaa !16
  %4 = load ptr, ptr %3, align 8
  %5 = getelementptr inbounds nuw %"class.std::__cxx11::_List_base", ptr %4, i32 0, i32 0
  %6 = getelementptr inbounds nuw %"struct.std::__cxx11::_List_base<std::shared_ptr<opencc::Dict>, std::allocator<std::shared_ptr<opencc::Dict>>>::_List_impl", ptr %5, i32 0, i32 0
  call void @_ZNSt20_List_const_iteratorISt10shared_ptrIN6opencc4DictEEEC2EPKNSt8__detail15_List_node_baseE(ptr noundef nonnull align 8 dereferenceable(8) %2, ptr noundef %6) #4
  %7 = getelementptr inbounds nuw %"struct.std::_List_const_iterator", ptr %2, i32 0, i32 0
  %8 = load ptr, ptr %7, align 8
  ret ptr %8
}

; Function Attrs: mustprogress nounwind uwtable
define linkonce_odr ptr @_ZNKSt7__cxx114listISt10shared_ptrIN6opencc4DictEESaIS4_EE5beginEv(ptr noundef nonnull align 8 dereferenceable(24) %0) #2 comdat align 2 {
  %2 = alloca %"struct.std::_List_const_iterator", align 8
  %3 = alloca ptr, align 8
  store ptr %0, ptr %3, align 8, !tbaa !16
  %4 = load ptr, ptr %3, align 8
  %5 = getelementptr inbounds nuw %"class.std::__cxx11::_List_base", ptr %4, i32 0, i32 0
  %6 = getelementptr inbounds nuw %"struct.std::__cxx11::_List_base<std::shared_ptr<opencc::Dict>, std::allocator<std::shared_ptr<opencc::Dict>>>::_List_impl", ptr %5, i32 0, i32 0
  %7 = getelementptr inbounds nuw %"struct.std::__detail::_List_node_base", ptr %6, i32 0, i32 0
  %8 = load ptr, ptr %7, align 8, !tbaa !42
  call void @_ZNSt20_List_const_iteratorISt10shared_ptrIN6opencc4DictEEEC2EPKNSt8__detail15_List_node_baseE(ptr noundef nonnull align 8 dereferenceable(8) %2, ptr noundef %8) #4
  %9 = getelementptr inbounds nuw %"struct.std::_List_const_iterator", ptr %2, i32 0, i32 0
  %10 = load ptr, ptr %9, align 8
  ret ptr %10
}

; Function Attrs: mustprogress uwtable
define ptr @_ZNK6opencc9DictGroup5MatchEPKcm(ptr noundef nonnull align 8 dereferenceable(40) %0, ptr noundef %1, i64 noundef %2) unnamed_addr #3 align 2 {
  %4 = alloca %"class.opencc::Optional", align 8
  %5 = alloca ptr, align 8
  %6 = alloca ptr, align 8
  %7 = alloca i64, align 8
  %8 = alloca ptr, align 8
  %9 = alloca %"struct.std::_List_const_iterator", align 8
  %10 = alloca %"struct.std::_List_const_iterator", align 8
  %11 = alloca i32, align 4
  %12 = alloca ptr, align 8
  %13 = alloca ptr, align 8
  %14 = alloca %"class.opencc::Optional", align 8
  store ptr %0, ptr %5, align 8, !tbaa !14
  store ptr %1, ptr %6, align 8, !tbaa !10
  store i64 %2, ptr %7, align 8, !tbaa !32
  %15 = load ptr, ptr %5, align 8
  call void @llvm.lifetime.start.p0(i64 8, ptr %8) #4
  %16 = getelementptr inbounds nuw %"class.opencc::DictGroup", ptr %15, i32 0, i32 2
  store ptr %16, ptr %8, align 8, !tbaa !16
  call void @llvm.lifetime.start.p0(i64 8, ptr %9) #4
  %17 = load ptr, ptr %8, align 8, !tbaa !16
  %18 = call ptr @_ZNKSt7__cxx114listISt10shared_ptrIN6opencc4DictEESaIS4_EE5beginEv(ptr noundef nonnull align 8 dereferenceable(24) %17) #4
  %19 = getelementptr inbounds nuw %"struct.std::_List_const_iterator", ptr %9, i32 0, i32 0
  store ptr %18, ptr %19, align 8
  call void @llvm.lifetime.start.p0(i64 8, ptr %10) #4
  %20 = load ptr, ptr %8, align 8, !tbaa !16
  %21 = call ptr @_ZNKSt7__cxx114listISt10shared_ptrIN6opencc4DictEESaIS4_EE3endEv(ptr noundef nonnull align 8 dereferenceable(24) %20) #4
  %22 = getelementptr inbounds nuw %"struct.std::_List_const_iterator", ptr %10, i32 0, i32 0
  store ptr %21, ptr %22, align 8
  br label %23

23:                                               ; preds = %48, %3
  %24 = call noundef zeroext i1 @_ZStneRKSt20_List_const_iteratorISt10shared_ptrIN6opencc4DictEEES6_(ptr noundef nonnull align 8 dereferenceable(8) %9, ptr noundef nonnull align 8 dereferenceable(8) %10) #4
  br i1 %24, label %26, label %25

25:                                               ; preds = %23
  store i32 2, ptr %11, align 4
  br label %50

26:                                               ; preds = %23
  call void @llvm.lifetime.start.p0(i64 8, ptr %12) #4
  %27 = call noundef nonnull align 8 dereferenceable(16) ptr @_ZNKSt20_List_const_iteratorISt10shared_ptrIN6opencc4DictEEEdeEv(ptr noundef nonnull align 8 dereferenceable(8) %9) #4
  store ptr %27, ptr %12, align 8, !tbaa !33
  call void @llvm.lifetime.start.p0(i64 8, ptr %13) #4
  call void @llvm.lifetime.start.p0(i64 8, ptr %14) #4
  %28 = load ptr, ptr %12, align 8, !tbaa !33
  %29 = call noundef ptr @_ZNKSt19__shared_ptr_accessIN6opencc4DictELN9__gnu_cxx12_Lock_policyE2ELb0ELb0EEptEv(ptr noundef nonnull align 1 dereferenceable(1) %28) #4
  %30 = load ptr, ptr %6, align 8, !tbaa !10
  %31 = load i64, ptr %7, align 8, !tbaa !32
  %32 = load ptr, ptr %29, align 8, !tbaa !18
  %33 = getelementptr inbounds ptr, ptr %32, i64 0
  %34 = load ptr, ptr %33, align 8
  %35 = call ptr %34(ptr noundef nonnull align 8 dereferenceable(8) %29, ptr noundef %30, i64 noundef %31)
  %36 = getelementptr inbounds nuw %"class.opencc::Optional", ptr %14, i32 0, i32 0
  store ptr %35, ptr %36, align 8
  store ptr %14, ptr %13, align 8, !tbaa !37
  %37 = load ptr, ptr %13, align 8, !tbaa !37
  %38 = call noundef zeroext i1 @_ZNK6opencc8OptionalIPKNS_9DictEntryEE6IsNullEv(ptr noundef nonnull align 8 dereferenceable(8) %37)
  br i1 %38, label %41, label %39

39:                                               ; preds = %26
  %40 = load ptr, ptr %13, align 8, !tbaa !37
  call void @llvm.memcpy.p0.p0.i64(ptr align 8 %4, ptr align 8 %40, i64 8, i1 false), !tbaa.struct !39
  store i32 1, ptr %11, align 4
  br label %42

41:                                               ; preds = %26
  store i32 0, ptr %11, align 4
  br label %42

42:                                               ; preds = %41, %39
  call void @llvm.lifetime.end.p0(i64 8, ptr %14) #4
  call void @llvm.lifetime.end.p0(i64 8, ptr %13) #4
  %43 = load i32, ptr %11, align 4
  switch i32 %43, label %45 [
    i32 0, label %44
  ]

44:                                               ; preds = %42
  store i32 0, ptr %11, align 4
  br label %45

45:                                               ; preds = %44, %42
  call void @llvm.lifetime.end.p0(i64 8, ptr %12) #4
  %46 = load i32, ptr %11, align 4
  switch i32 %46, label %50 [
    i32 0, label %47
  ]

47:                                               ; preds = %45
  br label %48

48:                                               ; preds = %47
  %49 = call noundef nonnull align 8 dereferenceable(8) ptr @_ZNSt20_List_const_iteratorISt10shared_ptrIN6opencc4DictEEEppEv(ptr noundef nonnull align 8 dereferenceable(8) %9) #4
  br label %23

50:                                               ; preds = %45, %25
  call void @llvm.lifetime.end.p0(i64 8, ptr %10) #4
  call void @llvm.lifetime.end.p0(i64 8, ptr %9) #4
  call void @llvm.lifetime.end.p0(i64 8, ptr %8) #4
  %51 = load i32, ptr %11, align 4
  switch i32 %51, label %58 [
    i32 2, label %52
    i32 1, label %55
  ]

52:                                               ; preds = %50
  %53 = call ptr @_ZN6opencc8OptionalIPKNS_9DictEntryEE4NullEv()
  %54 = getelementptr inbounds nuw %"class.opencc::Optional", ptr %4, i32 0, i32 0
  store ptr %53, ptr %54, align 8
  br label %55

55:                                               ; preds = %52, %50
  %56 = getelementptr inbounds nuw %"class.opencc::Optional", ptr %4, i32 0, i32 0
  %57 = load ptr, ptr %56, align 8
  ret ptr %57

58:                                               ; preds = %50
  unreachable
}