; Function Attrs: mustprogress uwtable
define ptr @_ZNK6opencc9DictGroup5MatchEPKcm(ptr noundef nonnull readonly align 8 dereferenceable(40) %0, ptr noundef %1, i64 noundef %2) unnamed_addr #3 align 2 personality ptr @__gxx_personality_v0 {
  %4 = getelementptr inbounds nuw i8, ptr %0, i64 16
  br label %5

5:                                                ; preds = %6, %3
  %.sroa.012.0.in = phi ptr [ %4, %3 ], [ %.sroa.012.0, %6 ]
  %.sroa.012.0 = load ptr, ptr %.sroa.012.0.in, align 8, !tbaa !6
  %.not = icmp eq ptr %.sroa.012.0, %4
  br i1 %.not, label %13, label %6

6:                                                ; preds = %5
  %7 = getelementptr inbounds nuw i8, ptr %.sroa.012.0, i64 16
  %8 = load ptr, ptr %7, align 8, !tbaa !11
  %9 = load ptr, ptr %8, align 8, !tbaa !3
  %10 = load ptr, ptr %9, align 8
  %11 = tail call ptr %10(ptr noundef nonnull align 8 dereferenceable(8) %8, ptr noundef %1, i64 noundef %2)
  %12 = icmp eq ptr %11, null
  br i1 %12, label %5, label %13

13:                                               ; preds = %6, %5
  %.sroa.0.3 = phi ptr [ null, %5 ], [ %11, %6 ]
  ret ptr %.sroa.0.3
}